target datalayout = "e-m:e-p270:32:32-p271:32:32-p272:64:64-i64:64-i128:128-f80:128-n8:16:32:64-S128"
target triple = "x86_64-pc-linux-gnu"

%struct.rb_red_blk_tree = type { ptr, ptr, ptr, ptr }
%struct.rb_red_blk_node = type { ptr, i32, ptr, ptr, ptr }

; Function Attrs: nounwind uwtable
define ptr @TreePredecessor(ptr noundef %0, ptr noundef %1) #0 {
  %3 = alloca ptr, align 8
  %4 = alloca ptr, align 8
  %5 = alloca ptr, align 8
  %6 = alloca ptr, align 8
  %7 = alloca ptr, align 8
  %8 = alloca ptr, align 8
  %9 = alloca i32, align 4
  store ptr %0, ptr %4, align 8, !tbaa !7
  store ptr %1, ptr %5, align 8, !tbaa !15
  call void @llvm.lifetime.start.p0(i64 8, ptr %6) #4
  call void @llvm.lifetime.start.p0(i64 8, ptr %7) #4
  %10 = load ptr, ptr %4, align 8, !tbaa !7
  %11 = getelementptr inbounds nuw %struct.rb_red_blk_tree, ptr %10, i32 0, i32 3
  %12 = load ptr, ptr %11, align 8, !tbaa !12
  store ptr %12, ptr %7, align 8, !tbaa !15
  call void @llvm.lifetime.start.p0(i64 8, ptr %8) #4
  %13 = load ptr, ptr %4, align 8, !tbaa !7
  %14 = getelementptr inbounds nuw %struct.rb_red_blk_tree, ptr %13, i32 0, i32 2
  %15 = load ptr, ptr %14, align 8, !tbaa !9
  store ptr %15, ptr %8, align 8, !tbaa !15
  %16 = load ptr, ptr %7, align 8, !tbaa !15
  %17 = load ptr, ptr %5, align 8, !tbaa !15
  %18 = getelementptr inbounds nuw %struct.rb_red_blk_node, ptr %17, i32 0, i32 2
  %19 = load ptr, ptr %18, align 8, !tbaa !19
  store ptr %19, ptr %6, align 8, !tbaa !15
  %20 = icmp ne ptr %16, %19
  br i1 %20, label %21, label %34

21:                                               ; preds = %2
  br label %22

22:                                               ; preds = %28, %21
  %23 = load ptr, ptr %6, align 8, !tbaa !15
  %24 = getelementptr inbounds nuw %struct.rb_red_blk_node, ptr %23, i32 0, i32 3
  %25 = load ptr, ptr %24, align 8, !tbaa !16
  %26 = load ptr, ptr %7, align 8, !tbaa !15
  %27 = icmp ne ptr %25, %26
  br i1 %27, label %28, label %32

28:                                               ; preds = %22
  %29 = load ptr, ptr %6, align 8, !tbaa !15
  %30 = getelementptr inbounds nuw %struct.rb_red_blk_node, ptr %29, i32 0, i32 3
  %31 = load ptr, ptr %30, align 8, !tbaa !16
  store ptr %31, ptr %6, align 8, !tbaa !15
  br label %22, !llvm.loop !28

32:                                               ; preds = %22
  %33 = load ptr, ptr %6, align 8, !tbaa !15
  store ptr %33, ptr %3, align 8
  store i32 1, ptr %9, align 4
  br label %57

34:                                               ; preds = %2
  %35 = load ptr, ptr %5, align 8, !tbaa !15
  %36 = getelementptr inbounds nuw %struct.rb_red_blk_node, ptr %35, i32 0, i32 4
  %37 = load ptr, ptr %36, align 8, !tbaa !20
  store ptr %37, ptr %6, align 8, !tbaa !15
  br label %38

38:                                               ; preds = %50, %34
  %39 = load ptr, ptr %5, align 8, !tbaa !15
  %40 = load ptr, ptr %6, align 8, !tbaa !15
  %41 = getelementptr inbounds nuw %struct.rb_red_blk_node, ptr %40, i32 0, i32 2
  %42 = load ptr, ptr %41, align 8, !tbaa !19
  %43 = icmp eq ptr %39, %42
  br i1 %43, label %44, label %55

44:                                               ; preds = %38
  %45 = load ptr, ptr %6, align 8, !tbaa !15
  %46 = load ptr, ptr %8, align 8, !tbaa !15
  %47 = icmp eq ptr %45, %46
  br i1 %47, label %48, label %50

48:                                               ; preds = %44
  %49 = load ptr, ptr %7, align 8, !tbaa !15
  store ptr %49, ptr %3, align 8
  store i32 1, ptr %9, align 4
  br label %57

50:                                               ; preds = %44
  %51 = load ptr, ptr %6, align 8, !tbaa !15
  store ptr %51, ptr %5, align 8, !tbaa !15
  %52 = load ptr, ptr %6, align 8, !tbaa !15
  %53 = getelementptr inbounds nuw %struct.rb_red_blk_node, ptr %52, i32 0, i32 4
  %54 = load ptr, ptr %53, align 8, !tbaa !20
  store ptr %54, ptr %6, align 8, !tbaa !15
  br label %38, !llvm.loop !29

55:                                               ; preds = %38
  %56 = load ptr, ptr %6, align 8, !tbaa !15
  store ptr %56, ptr %3, align 8
  store i32 1, ptr %9, align 4
  br label %57

57:                                               ; preds = %55, %48, %32
  call void @llvm.lifetime.end.p0(i64 8, ptr %8) #4
  call void @llvm.lifetime.end.p0(i64 8, ptr %7) #4
  call void @llvm.lifetime.end.p0(i64 8, ptr %6) #4
  %58 = load ptr, ptr %3, align 8
  ret ptr %58
}