; Function Attrs: nofree norecurse nosync nounwind memory(read, inaccessiblemem: none) uwtable
define ptr @TreePredecessor(ptr noundef readonly captures(none) %0, ptr noundef readonly captures(address) %1) local_unnamed_addr #4 {
  %3 = getelementptr inbounds nuw i8, ptr %0, i64 24
  %4 = load ptr, ptr %3, align 8, !tbaa !10
  %5 = getelementptr inbounds nuw i8, ptr %0, i64 16
  %6 = load ptr, ptr %5, align 8, !tbaa !18
  %7 = getelementptr inbounds nuw i8, ptr %1, i64 16
  %8 = load ptr, ptr %7, align 8, !tbaa !14
  %.not = icmp eq ptr %4, %8
  br i1 %.not, label %.preheader, label %.preheader24

.preheader24:                                     ; preds = %2, %.preheader24
  %.019 = phi ptr [ %10, %.preheader24 ], [ %8, %2 ]
  %9 = getelementptr inbounds nuw i8, ptr %.019, i64 24
  %10 = load ptr, ptr %9, align 8, !tbaa !11
  %.not23 = icmp eq ptr %10, %4
  br i1 %.not23, label %.loopexit, label %.preheader24, !llvm.loop !25

.preheader:                                       ; preds = %2, %14
  %.018 = phi ptr [ %.1, %14 ], [ %1, %2 ]
  %.1.in = getelementptr inbounds nuw i8, ptr %.018, i64 32
  %.1 = load ptr, ptr %.1.in, align 8, !tbaa !15
  %11 = getelementptr inbounds nuw i8, ptr %.1, i64 16
  %12 = load ptr, ptr %11, align 8, !tbaa !14
  %13 = icmp eq ptr %.018, %12
  br i1 %13, label %14, label %.loopexit

14:                                               ; preds = %.preheader
  %15 = icmp eq ptr %.1, %6
  br i1 %15, label %.loopexit, label %.preheader, !llvm.loop !26

.loopexit:                                        ; preds = %.preheader24, %.preheader, %14
  %.0 = phi ptr [ %.1, %.preheader ], [ %4, %14 ], [ %.019, %.preheader24 ]
  ret ptr %.0
}